target datalayout = "e-m:e-p270:32:32-p271:32:32-p272:64:64-i64:64-i128:128-f80:128-n8:16:32:64-S128"
target triple = "x86_64-pc-linux-gnu"

%struct.rerr = type { i32, ptr, ptr }
%struct.llvm_regex = type { i32, i64, ptr, ptr }

@rerrs = internal global [17 x %struct.rerr] [%struct.rerr { i32 1, ptr @.str.1, ptr @.str.2 }, %struct.rerr { i32 2, ptr @.str.3, ptr @.str.4 }, %struct.rerr { i32 3, ptr @.str.5, ptr @.str.6 }, %struct.rerr { i32 4, ptr @.str.7, ptr @.str.8 }, %struct.rerr { i32 5, ptr @.str.9, ptr @.str.10 }, %struct.rerr { i32 6, ptr @.str.11, ptr @.str.12 }, %struct.rerr { i32 7, ptr @.str.13, ptr @.str.14 }, %struct.rerr { i32 8, ptr @.str.15, ptr @.str.16 }, %struct.rerr { i32 9, ptr @.str.17, ptr @.str.18 }, %struct.rerr { i32 10, ptr @.str.19, ptr @.str.20 }, %struct.rerr { i32 11, ptr @.str.21, ptr @.str.22 }, %struct.rerr { i32 12, ptr @.str.23, ptr @.str.24 }, %struct.rerr { i32 13, ptr @.str.25, ptr @.str.26 }, %struct.rerr { i32 14, ptr @.str.27, ptr @.str.28 }, %struct.rerr { i32 15, ptr @.str.29, ptr @.str.30 }, %struct.rerr { i32 16, ptr @.str.31, ptr @.str.32 }, %struct.rerr { i32 0, ptr @.str.33, ptr @.str.34 }], align 16
@.str = private unnamed_addr constant [9 x i8] c"REG_0x%x\00", align 1
@.str.1 = private unnamed_addr constant [12 x i8] c"REG_NOMATCH\00", align 1
@.str.2 = private unnamed_addr constant [31 x i8] c"llvm_regexec() failed to match\00", align 1
@.str.3 = private unnamed_addr constant [11 x i8] c"REG_BADPAT\00", align 1
@.str.4 = private unnamed_addr constant [27 x i8] c"invalid regular expression\00", align 1
@.str.5 = private unnamed_addr constant [13 x i8] c"REG_ECOLLATE\00", align 1
@.str.6 = private unnamed_addr constant [26 x i8] c"invalid collating element\00", align 1
@.str.7 = private unnamed_addr constant [11 x i8] c"REG_ECTYPE\00", align 1
@.str.8 = private unnamed_addr constant [24 x i8] c"invalid character class\00", align 1
@.str.9 = private unnamed_addr constant [12 x i8] c"REG_EESCAPE\00", align 1
@.str.10 = private unnamed_addr constant [23 x i8] c"trailing backslash (\\)\00", align 1
@.str.11 = private unnamed_addr constant [12 x i8] c"REG_ESUBREG\00", align 1
@.str.12 = private unnamed_addr constant [29 x i8] c"invalid backreference number\00", align 1
@.str.13 = private unnamed_addr constant [11 x i8] c"REG_EBRACK\00", align 1
@.str.14 = private unnamed_addr constant [28 x i8] c"brackets ([ ]) not balanced\00", align 1
@.str.15 = private unnamed_addr constant [11 x i8] c"REG_EPAREN\00", align 1
@.str.16 = private unnamed_addr constant [25 x i8] c"parentheses not balanced\00", align 1
@.str.17 = private unnamed_addr constant [11 x i8] c"REG_EBRACE\00", align 1
@.str.18 = private unnamed_addr constant [20 x i8] c"braces not balanced\00", align 1
@.str.19 = private unnamed_addr constant [10 x i8] c"REG_BADBR\00", align 1
@.str.20 = private unnamed_addr constant [28 x i8] c"invalid repetition count(s)\00", align 1
@.str.21 = private unnamed_addr constant [11 x i8] c"REG_ERANGE\00", align 1
@.str.22 = private unnamed_addr constant [24 x i8] c"invalid character range\00", align 1
@.str.23 = private unnamed_addr constant [11 x i8] c"REG_ESPACE\00", align 1
@.str.24 = private unnamed_addr constant [14 x i8] c"out of memory\00", align 1
@.str.25 = private unnamed_addr constant [11 x i8] c"REG_BADRPT\00", align 1
@.str.26 = private unnamed_addr constant [36 x i8] c"repetition-operator operand invalid\00", align 1
@.str.27 = private unnamed_addr constant [10 x i8] c"REG_EMPTY\00", align 1
@.str.28 = private unnamed_addr constant [22 x i8] c"empty (sub)expression\00", align 1
@.str.29 = private unnamed_addr constant [11 x i8] c"REG_ASSERT\00", align 1
@.str.30 = private unnamed_addr constant [34 x i8] c"\22can't happen\22 -- you found a bug\00", align 1
@.str.31 = private unnamed_addr constant [11 x i8] c"REG_INVARG\00", align 1
@.str.32 = private unnamed_addr constant [34 x i8] c"invalid argument to regex routine\00", align 1
@.str.33 = private unnamed_addr constant [1 x i8] zeroinitializer, align 1
@.str.34 = private unnamed_addr constant [34 x i8] c"*** unknown regexp error code ***\00", align 1
@.str.35 = private unnamed_addr constant [2 x i8] c"0\00", align 1
@.str.36 = private unnamed_addr constant [3 x i8] c"%d\00", align 1

; Function Attrs: nounwind uwtable
define dso_local i64 @llvm_regerror(i32 noundef %0, ptr noundef %1, ptr noundef %2, i64 noundef %3) #0 {
  %5 = alloca i32, align 4
  %6 = alloca ptr, align 8
  %7 = alloca ptr, align 8
  %8 = alloca i64, align 8
  %9 = alloca ptr, align 8
  %10 = alloca i64, align 8
  %11 = alloca i32, align 4
  %12 = alloca ptr, align 8
  %13 = alloca [50 x i8], align 16
  store i32 %0, ptr %5, align 4
  store ptr %1, ptr %6, align 8
  store ptr %2, ptr %7, align 8
  store i64 %3, ptr %8, align 8
  %14 = load i32, ptr %5, align 4
  %15 = and i32 %14, -257
  store i32 %15, ptr %11, align 4
  %16 = load i32, ptr %5, align 4
  %17 = icmp eq i32 %16, 255
  br i1 %17, label %18, label %22

18:                                               ; preds = %4
  %19 = load ptr, ptr %6, align 8
  %20 = getelementptr inbounds [50 x i8], ptr %13, i64 0, i64 0
  %21 = call ptr @regatoi(ptr noundef %19, ptr noundef %20, i32 noundef 50)
  store ptr %21, ptr %12, align 8
  br label %65

22:                                               ; preds = %4
  store ptr @rerrs, ptr %9, align 8
  br label %23

23:                                               ; preds = %36, %22
  %24 = load ptr, ptr %9, align 8
  %25 = getelementptr inbounds nuw %struct.rerr, ptr %24, i32 0, i32 0
  %26 = load i32, ptr %25, align 8
  %27 = icmp ne i32 %26, 0
  br i1 %27, label %28, label %39

28:                                               ; preds = %23
  %29 = load ptr, ptr %9, align 8
  %30 = getelementptr inbounds nuw %struct.rerr, ptr %29, i32 0, i32 0
  %31 = load i32, ptr %30, align 8
  %32 = load i32, ptr %11, align 4
  %33 = icmp eq i32 %31, %32
  br i1 %33, label %34, label %35

34:                                               ; preds = %28
  br label %39

35:                                               ; preds = %28
  br label %36

36:                                               ; preds = %35
  %37 = load ptr, ptr %9, align 8
  %38 = getelementptr inbounds %struct.rerr, ptr %37, i32 1
  store ptr %38, ptr %9, align 8
  br label %23, !llvm.loop !4

39:                                               ; preds = %34, %23
  %40 = load i32, ptr %5, align 4
  %41 = and i32 %40, 256
  %42 = icmp ne i32 %41, 0
  br i1 %42, label %43, label %60

43:                                               ; preds = %39
  %44 = load ptr, ptr %9, align 8
  %45 = getelementptr inbounds nuw %struct.rerr, ptr %44, i32 0, i32 0
  %46 = load i32, ptr %45, align 8
  %47 = icmp ne i32 %46, 0
  br i1 %47, label %48, label %54

48:                                               ; preds = %43
  %49 = getelementptr inbounds [50 x i8], ptr %13, i64 0, i64 0
  %50 = load ptr, ptr %9, align 8
  %51 = getelementptr inbounds nuw %struct.rerr, ptr %50, i32 0, i32 1
  %52 = load ptr, ptr %51, align 8
  %53 = call i64 @llvm_strlcpy(ptr noundef %49, ptr noundef %52, i64 noundef 50)
  br label %58

54:                                               ; preds = %43
  %55 = getelementptr inbounds [50 x i8], ptr %13, i64 0, i64 0
  %56 = load i32, ptr %11, align 4
  %57 = call i32 (ptr, i64, ptr, ...) @snprintf(ptr noundef %55, i64 noundef 50, ptr noundef @.str, i32 noundef %56) #4
  br label %58

58:                                               ; preds = %54, %48
  %59 = getelementptr inbounds [50 x i8], ptr %13, i64 0, i64 0
  store ptr %59, ptr %12, align 8
  br label %64

60:                                               ; preds = %39
  %61 = load ptr, ptr %9, align 8
  %62 = getelementptr inbounds nuw %struct.rerr, ptr %61, i32 0, i32 2
  %63 = load ptr, ptr %62, align 8
  store ptr %63, ptr %12, align 8
  br label %64

64:                                               ; preds = %60, %58
  br label %65

65:                                               ; preds = %64, %18
  %66 = load ptr, ptr %12, align 8
  %67 = call i64 @strlen(ptr noundef %66) #5
  %68 = add i64 %67, 1
  store i64 %68, ptr %10, align 8
  %69 = load i64, ptr %8, align 8
  %70 = icmp ugt i64 %69, 0
  br i1 %70, label %71, label %76

71:                                               ; preds = %65
  %72 = load ptr, ptr %7, align 8
  %73 = load ptr, ptr %12, align 8
  %74 = load i64, ptr %8, align 8
  %75 = call i64 @llvm_strlcpy(ptr noundef %72, ptr noundef %73, i64 noundef %74)
  br label %76

76:                                               ; preds = %71, %65
  %77 = load i64, ptr %10, align 8
  ret i64 %77
}

; Function Attrs: nounwind uwtable
define internal ptr @regatoi(ptr noundef %0, ptr noundef %1, i32 noundef %2) #0 {
  %4 = alloca ptr, align 8
  %5 = alloca ptr, align 8
  %6 = alloca ptr, align 8
  %7 = alloca i32, align 4
  %8 = alloca ptr, align 8
  store ptr %0, ptr %5, align 8
  store ptr %1, ptr %6, align 8
  store i32 %2, ptr %7, align 4
  store ptr @rerrs, ptr %8, align 8
  br label %9

9:                                                ; preds = %25, %3
  %10 = load ptr, ptr %8, align 8
  %11 = getelementptr inbounds nuw %struct.rerr, ptr %10, i32 0, i32 0
  %12 = load i32, ptr %11, align 8
  %13 = icmp ne i32 %12, 0
  br i1 %13, label %14, label %28

14:                                               ; preds = %9
  %15 = load ptr, ptr %8, align 8
  %16 = getelementptr inbounds nuw %struct.rerr, ptr %15, i32 0, i32 1
  %17 = load ptr, ptr %16, align 8
  %18 = load ptr, ptr %5, align 8
  %19 = getelementptr inbounds nuw %struct.llvm_regex, ptr %18, i32 0, i32 2
  %20 = load ptr, ptr %19, align 8
  %21 = call i32 @strcmp(ptr noundef %17, ptr noundef %20) #5
  %22 = icmp eq i32 %21, 0
  br i1 %22, label %23, label %24

23:                                               ; preds = %14
  br label %28

24:                                               ; preds = %14
  br label %25

25:                                               ; preds = %24
  %26 = load ptr, ptr %8, align 8
  %27 = getelementptr inbounds %struct.rerr, ptr %26, i32 1
  store ptr %27, ptr %8, align 8
  br label %9, !llvm.loop !6

28:                                               ; preds = %23, %9
  %29 = load ptr, ptr %8, align 8
  %30 = getelementptr inbounds nuw %struct.rerr, ptr %29, i32 0, i32 0
  %31 = load i32, ptr %30, align 8
  %32 = icmp eq i32 %31, 0
  br i1 %32, label %33, label %34

33:                                               ; preds = %28
  store ptr @.str.35, ptr %4, align 8
  br label %43

34:                                               ; preds = %28
  %35 = load ptr, ptr %6, align 8
  %36 = load i32, ptr %7, align 4
  %37 = sext i32 %36 to i64
  %38 = load ptr, ptr %8, align 8
  %39 = getelementptr inbounds nuw %struct.rerr, ptr %38, i32 0, i32 0
  %40 = load i32, ptr %39, align 8
  %41 = call i32 (ptr, i64, ptr, ...) @snprintf(ptr noundef %35, i64 noundef %37, ptr noundef @.str.36, i32 noundef %40) #4
  %42 = load ptr, ptr %6, align 8
  store ptr %42, ptr %4, align 8
  br label %43

43:                                               ; preds = %34, %33
  %44 = load ptr, ptr %4, align 8
  ret ptr %44
}

declare i64 @llvm_strlcpy(ptr noundef, ptr noundef, i64 noundef) #1

; Function Attrs: nounwind
declare i32 @snprintf(ptr noundef, i64 noundef, ptr noundef, ...) #2

; Function Attrs: nounwind willreturn memory(read)
declare i64 @strlen(ptr noundef) #3

; Function Attrs: nounwind willreturn memory(read)
declare i32 @strcmp(ptr noundef, ptr noundef) #3


!llvm.module.flags = !{!0, !1, !2, !3}

!0 = !{i32 1, !"wchar_size", i32 4}
!1 = !{i32 8, !"PIC Level", i32 2}
!2 = !{i32 7, !"uwtable", i32 2}
!3 = !{i32 7, !"frame-pointer", i32 2}
!4 = distinct !{!4, !5}
!5 = !{!"llvm.loop.mustprogress"}
!6 = distinct !{!6, !5}
